target datalayout = "e-m:e-p270:32:32-p271:32:32-p272:64:64-i64:64-i128:128-f80:128-n8:16:32:64-S128"
target triple = "x86_64-unknown-linux-gnu"

%"class.icu_75::Formattable" = type { %"class.icu_75::UObject", %union.anon, ptr, ptr, i32, %"class.icu_75::UnicodeString" }
%"class.icu_75::UObject" = type { ptr }
%union.anon = type { %struct.anon }
%struct.anon = type { ptr, i32 }
%"class.icu_75::UnicodeString" = type { %"class.icu_75::Replaceable", %"union.icu_75::UnicodeString::StackBufferOrFields" }
%"class.icu_75::Replaceable" = type { %"class.icu_75::UObject" }
%"union.icu_75::UnicodeString::StackBufferOrFields" = type { %struct.anon.1, [32 x i8] }
%struct.anon.1 = type { i16, i32, i32, ptr }
%"class.icu_75::Measure" = type { %"class.icu_75::UObject", %"class.icu_75::Formattable", ptr }

@_ZTIN6icu_757UObjectE = external constant ptr
@_ZTIN6icu_757MeasureE = external constant ptr

; Function Attrs: mustprogress nounwind uwtable
define linkonce_odr noundef nonnull align 8 dereferenceable(112) ptr @_ZNK6icu_757Measure9getNumberEv(ptr noundef nonnull align 8 dereferenceable(128) %this) #0 comdat align 2 {
entry:
  %this.addr = alloca ptr, align 8
  store ptr %this, ptr %this.addr, align 8
  %this1 = load ptr, ptr %this.addr, align 8
  %number = getelementptr inbounds %"class.icu_75::Measure", ptr %this1, i32 0, i32 1
  ret ptr %number
}

; Function Attrs: mustprogress nounwind uwtable
define internal noundef signext i8 @_ZN6icu_75L17instanceOfMeasureEPKNS_7UObjectE(ptr noundef %a) #0 {
entry:
  %a.addr = alloca ptr, align 8
  store ptr %a, ptr %a.addr, align 8
  %0 = load ptr, ptr %a.addr, align 8
  %1 = icmp eq ptr %0, null
  br i1 %1, label %dynamic_cast.null, label %dynamic_cast.notnull

dynamic_cast.notnull:                             ; preds = %entry
  %2 = call ptr @__dynamic_cast(ptr %0, ptr @_ZTIN6icu_757UObjectE, ptr @_ZTIN6icu_757MeasureE, i64 0) #10
  br label %dynamic_cast.end

dynamic_cast.null:                                ; preds = %entry
  br label %dynamic_cast.end

dynamic_cast.end:                                 ; preds = %dynamic_cast.null, %dynamic_cast.notnull
  %3 = phi ptr [ %2, %dynamic_cast.notnull ], [ null, %dynamic_cast.null ]
  %cmp = icmp ne ptr %3, null
  %conv = zext i1 %cmp to i8
  ret i8 %conv
}

; Function Attrs: mustprogress nounwind uwtable
define internal noundef signext i8 @_ZL9U_FAILURE10UErrorCode(i32 noundef %code) #0 {
entry:
  %code.addr = alloca i32, align 4
  store i32 %code, ptr %code.addr, align 4
  %0 = load i32, ptr %code.addr, align 4
  %cmp = icmp sgt i32 %0, 0
  %conv = zext i1 %cmp to i8
  ret i8 %conv
}

; Function Attrs: mustprogress uwtable
define noundef i64 @_ZNK6icu_7511Formattable8getInt64ER10UErrorCode(ptr noundef nonnull align 8 dereferenceable(112) %this, ptr noundef nonnull align 4 dereferenceable(4) %status) #1 align 2 {
entry:
  %retval = alloca i64, align 8
  %this.addr = alloca ptr, align 8
  %status.addr = alloca ptr, align 8
  store ptr %this, ptr %this.addr, align 8
  store ptr %status, ptr %status.addr, align 8
  %this1 = load ptr, ptr %this.addr, align 8
  %0 = load ptr, ptr %status.addr, align 8
  %1 = load i32, ptr %0, align 4
  %call = call noundef signext i8 @_ZL9U_FAILURE10UErrorCode(i32 noundef %1)
  %tobool = icmp ne i8 %call, 0
  br i1 %tobool, label %if.then, label %if.end

if.then:                                          ; preds = %entry
  store i64 0, ptr %retval, align 8
  br label %return

if.end:                                           ; preds = %entry
  %fType = getelementptr inbounds %"class.icu_75::Formattable", ptr %this1, i32 0, i32 4
  %2 = load i32, ptr %fType, align 8
  switch i32 %2, label %sw.default [
    i32 2, label %sw.bb
    i32 5, label %sw.bb
    i32 1, label %sw.bb2
    i32 6, label %sw.bb23
  ]

sw.bb:                                            ; preds = %if.end, %if.end
  %fValue = getelementptr inbounds %"class.icu_75::Formattable", ptr %this1, i32 0, i32 1
  %3 = load i64, ptr %fValue, align 8
  store i64 %3, ptr %retval, align 8
  br label %return

sw.bb2:                                           ; preds = %if.end
  %fValue3 = getelementptr inbounds %"class.icu_75::Formattable", ptr %this1, i32 0, i32 1
  %4 = load double, ptr %fValue3, align 8
  %cmp = fcmp ogt double %4, 0x43E0000000000000
  br i1 %cmp, label %if.then4, label %if.else

if.then4:                                         ; preds = %sw.bb2
  %5 = load ptr, ptr %status.addr, align 8
  store i32 3, ptr %5, align 4
  store i64 9223372036854775807, ptr %retval, align 8
  br label %return

if.else:                                          ; preds = %sw.bb2
  %fValue5 = getelementptr inbounds %"class.icu_75::Formattable", ptr %this1, i32 0, i32 1
  %6 = load double, ptr %fValue5, align 8
  %cmp6 = fcmp olt double %6, 0xC3E0000000000000
  br i1 %cmp6, label %if.then7, label %if.else8

if.then7:                                         ; preds = %if.else
  %7 = load ptr, ptr %status.addr, align 8
  store i32 3, ptr %7, align 4
  store i64 -9223372036854775808, ptr %retval, align 8
  br label %return

if.else8:                                         ; preds = %if.else
  %fValue9 = getelementptr inbounds %"class.icu_75::Formattable", ptr %this1, i32 0, i32 1
  %8 = load double, ptr %fValue9, align 8
  %9 = call double @llvm.fabs.f64(double %8)
  %cmp10 = fcmp ogt double %9, 0x4340000000000000
  br i1 %cmp10, label %land.lhs.true, label %if.else21

land.lhs.true:                                    ; preds = %if.else8
  %fDecimalQuantity = getelementptr inbounds %"class.icu_75::Formattable", ptr %this1, i32 0, i32 3
  %10 = load ptr, ptr %fDecimalQuantity, align 8
  %cmp11 = icmp ne ptr %10, null
  br i1 %cmp11, label %if.then12, label %if.else21

if.then12:                                        ; preds = %land.lhs.true
  %fDecimalQuantity13 = getelementptr inbounds %"class.icu_75::Formattable", ptr %this1, i32 0, i32 3
  %11 = load ptr, ptr %fDecimalQuantity13, align 8
  %call14 = call noundef zeroext i1 @_ZNK6icu_756number4impl15DecimalQuantity10fitsInLongEb(ptr noundef nonnull align 8 dereferenceable(66) %11, i1 noundef zeroext true)
  br i1 %call14, label %if.then15, label %if.else18

if.then15:                                        ; preds = %if.then12
  %fDecimalQuantity16 = getelementptr inbounds %"class.icu_75::Formattable", ptr %this1, i32 0, i32 3
  %12 = load ptr, ptr %fDecimalQuantity16, align 8
  %call17 = call noundef i64 @_ZNK6icu_756number4impl15DecimalQuantity6toLongEb(ptr noundef nonnull align 8 dereferenceable(66) %12, i1 noundef zeroext false)
  store i64 %call17, ptr %retval, align 8
  br label %return

if.else18:                                        ; preds = %if.then12
  %13 = load ptr, ptr %status.addr, align 8
  store i32 3, ptr %13, align 4
  %fDecimalQuantity19 = getelementptr inbounds %"class.icu_75::Formattable", ptr %this1, i32 0, i32 3
  %14 = load ptr, ptr %fDecimalQuantity19, align 8
  %call20 = call noundef zeroext i1 @_ZNK6icu_756number4impl15DecimalQuantity10isNegativeEv(ptr noundef nonnull align 8 dereferenceable(66) %14)
  %cond = select i1 %call20, i64 -9223372036854775808, i64 9223372036854775807
  store i64 %cond, ptr %retval, align 8
  br label %return

if.else21:                                        ; preds = %land.lhs.true, %if.else8
  %fValue22 = getelementptr inbounds %"class.icu_75::Formattable", ptr %this1, i32 0, i32 1
  %15 = load double, ptr %fValue22, align 8
  %conv = fptosi double %15 to i64
  store i64 %conv, ptr %retval, align 8
  br label %return

sw.bb23:                                          ; preds = %if.end
  %fValue24 = getelementptr inbounds %"class.icu_75::Formattable", ptr %this1, i32 0, i32 1
  %16 = load ptr, ptr %fValue24, align 8
  %cmp25 = icmp eq ptr %16, null
  br i1 %cmp25, label %if.then26, label %if.end27

if.then26:                                        ; preds = %sw.bb23
  %17 = load ptr, ptr %status.addr, align 8
  store i32 7, ptr %17, align 4
  store i64 0, ptr %retval, align 8
  br label %return

if.end27:                                         ; preds = %sw.bb23
  %fValue28 = getelementptr inbounds %"class.icu_75::Formattable", ptr %this1, i32 0, i32 1
  %18 = load ptr, ptr %fValue28, align 8
  %call29 = call noundef signext i8 @_ZN6icu_75L17instanceOfMeasureEPKNS_7UObjectE(ptr noundef %18)
  %tobool30 = icmp ne i8 %call29, 0
  br i1 %tobool30, label %if.then31, label %if.end35

if.then31:                                        ; preds = %if.end27
  %fValue32 = getelementptr inbounds %"class.icu_75::Formattable", ptr %this1, i32 0, i32 1
  %19 = load ptr, ptr %fValue32, align 8
  %call33 = call noundef nonnull align 8 dereferenceable(112) ptr @_ZNK6icu_757Measure9getNumberEv(ptr noundef nonnull align 8 dereferenceable(128) %19)
  %20 = load ptr, ptr %status.addr, align 8
  %call34 = call noundef i64 @_ZNK6icu_7511Formattable8getInt64ER10UErrorCode(ptr noundef nonnull align 8 dereferenceable(112) %call33, ptr noundef nonnull align 4 dereferenceable(4) %20)
  store i64 %call34, ptr %retval, align 8
  br label %return

if.end35:                                         ; preds = %if.end27
  br label %sw.default

sw.default:                                       ; preds = %if.end35, %if.end
  %21 = load ptr, ptr %status.addr, align 8
  store i32 3, ptr %21, align 4
  store i64 0, ptr %retval, align 8
  br label %return

return:                                           ; preds = %sw.default, %if.then31, %if.then26, %if.else21, %if.else18, %if.then15, %if.then7, %if.then4, %sw.bb, %if.then
  %22 = load i64, ptr %retval, align 8
  ret i64 %22
}