; Function Attrs: mustprogress uwtable
define noundef i64 @_ZNK6icu_7511Formattable8getInt64ER10UErrorCode(ptr nocapture noundef nonnull readonly align 8 dereferenceable(112) %this, ptr nocapture noundef nonnull align 4 dereferenceable(4) %status) local_unnamed_addr #1 align 2 {
entry:
  %0 = load i32, ptr %status, align 4
  %cmp.i = icmp slt i32 %0, 1
  br i1 %cmp.i, label %if.end.us, label %return

if.end.us:                                        ; preds = %entry, %if.end27.us
  %this.tr15.us = phi ptr [ %number.i.us, %if.end27.us ], [ %this, %entry ]
  %fType.us = getelementptr inbounds i8, ptr %this.tr15.us, i64 40
  %1 = load i32, ptr %fType.us, align 8
  switch i32 %1, label %sw.default [
    i32 2, label %sw.bb
    i32 5, label %sw.bb
    i32 1, label %sw.bb2
    i32 6, label %sw.bb23.us
  ]

sw.bb23.us:                                       ; preds = %if.end.us
  %fValue24.us = getelementptr inbounds i8, ptr %this.tr15.us, i64 8
  %2 = load ptr, ptr %fValue24.us, align 8
  %cmp25.us = icmp eq ptr %2, null
  br i1 %cmp25.us, label %if.then26, label %if.end27.us

if.end27.us:                                      ; preds = %sw.bb23.us
  %3 = tail call ptr @__dynamic_cast(ptr nonnull %2, ptr nonnull @_ZTIN6icu_757UObjectE, ptr nonnull @_ZTIN6icu_757MeasureE, i64 0) #16
  %cmp.i9.not.us = icmp eq ptr %3, null
  %number.i.us = getelementptr inbounds i8, ptr %2, i64 8
  br i1 %cmp.i9.not.us, label %sw.default, label %if.end.us

sw.bb:                                            ; preds = %if.end.us, %if.end.us
  %fValue = getelementptr inbounds i8, ptr %this.tr15.us, i64 8
  %4 = load i64, ptr %fValue, align 8
  br label %return

sw.bb2:                                           ; preds = %if.end.us
  %fValue3 = getelementptr inbounds i8, ptr %this.tr15.us, i64 8
  %5 = load double, ptr %fValue3, align 8
  %cmp = fcmp ogt double %5, 0x43E0000000000000
  br i1 %cmp, label %if.then4, label %if.else

if.then4:                                         ; preds = %sw.bb2
  store i32 3, ptr %status, align 4
  br label %return

if.else:                                          ; preds = %sw.bb2
  %cmp6 = fcmp olt double %5, 0xC3E0000000000000
  br i1 %cmp6, label %if.then7, label %if.else8

if.then7:                                         ; preds = %if.else
  store i32 3, ptr %status, align 4
  br label %return

if.else8:                                         ; preds = %if.else
  %6 = tail call double @llvm.fabs.f64(double %5)
  %cmp10 = fcmp ogt double %6, 0x4340000000000000
  br i1 %cmp10, label %land.lhs.true, label %if.else21

land.lhs.true:                                    ; preds = %if.else8
  %fDecimalQuantity = getelementptr inbounds i8, ptr %this.tr15.us, i64 32
  %7 = load ptr, ptr %fDecimalQuantity, align 8
  %cmp11.not = icmp eq ptr %7, null
  br i1 %cmp11.not, label %if.else21, label %if.then12

if.then12:                                        ; preds = %land.lhs.true
  %call14 = tail call noundef zeroext i1 @_ZNK6icu_756number4impl15DecimalQuantity10fitsInLongEb(ptr noundef nonnull align 8 dereferenceable(66) %7, i1 noundef zeroext true)
  br i1 %call14, label %if.then15, label %if.else18

if.then15:                                        ; preds = %if.then12
  %8 = load ptr, ptr %fDecimalQuantity, align 8
  %call17 = tail call noundef i64 @_ZNK6icu_756number4impl15DecimalQuantity6toLongEb(ptr noundef nonnull align 8 dereferenceable(66) %8, i1 noundef zeroext false)
  br label %return

if.else18:                                        ; preds = %if.then12
  store i32 3, ptr %status, align 4
  %9 = load ptr, ptr %fDecimalQuantity, align 8
  %call20 = tail call noundef zeroext i1 @_ZNK6icu_756number4impl15DecimalQuantity10isNegativeEv(ptr noundef nonnull align 8 dereferenceable(66) %9)
  %cond = select i1 %call20, i64 -9223372036854775808, i64 9223372036854775807
  br label %return

if.else21:                                        ; preds = %land.lhs.true, %if.else8
  %conv = fptosi double %5 to i64
  br label %return

if.then26:                                        ; preds = %sw.bb23.us
  store i32 7, ptr %status, align 4
  br label %return

sw.default:                                       ; preds = %if.end.us, %if.end27.us
  store i32 3, ptr %status, align 4
  br label %return

return:                                           ; preds = %entry, %sw.default, %if.then26, %if.else21, %if.else18, %if.then15, %if.then7, %if.then4, %sw.bb
  %retval.0 = phi i64 [ 0, %sw.default ], [ 0, %if.then26 ], [ 9223372036854775807, %if.then4 ], [ -9223372036854775808, %if.then7 ], [ %call17, %if.then15 ], [ %cond, %if.else18 ], [ %conv, %if.else21 ], [ %4, %sw.bb ], [ 0, %entry ]
  ret i64 %retval.0
}